target datalayout = "e-m:e-p270:32:32-p271:32:32-p272:64:64-i64:64-i128:128-f80:128-n8:16:32:64-S128"
target triple = "x86_64-pc-linux-gnu"

%struct.SDL_AtomicInt = type { i32 }
%struct.SDL_Rect = type { i32, i32, i32, i32 }
%struct.SDL_VideoDevice = type { ptr, ptr, ptr, ptr, ptr, ptr, ptr, ptr, ptr, ptr, ptr, ptr, ptr, ptr, ptr, ptr, ptr, ptr, ptr, ptr, ptr, ptr, ptr, ptr, ptr, ptr, ptr, ptr, ptr, ptr, ptr, ptr, ptr, ptr, ptr, ptr, ptr, ptr, ptr, ptr, ptr, ptr, ptr, ptr, ptr, ptr, ptr, ptr, ptr, ptr, ptr, ptr, ptr, ptr, ptr, ptr, ptr, ptr, ptr, ptr, ptr, ptr, ptr, ptr, ptr, ptr, ptr, ptr, ptr, ptr, ptr, ptr, ptr, ptr, ptr, ptr, ptr, ptr, ptr, ptr, ptr, ptr, ptr, ptr, ptr, ptr, ptr, ptr, ptr, ptr, ptr, ptr, ptr, ptr, ptr, ptr, ptr, i64, i8, i8, i8, ptr, i32, ptr, %struct.SDL_Rect, ptr, ptr, i32, ptr, ptr, ptr, ptr, i64, ptr, i8, i32, i32, %struct.anon, ptr, ptr, ptr, ptr, ptr, ptr, %struct.SDL_AtomicInt, %struct.SDL_AtomicInt, i8, %struct.anon.0, ptr, ptr, ptr, ptr, ptr }
%struct.anon = type { i32, i32, i32, i32, i32, i32, i32, i32, i32, i32, i32, i32, i32, i32, i32, i32, i32, i32, i32, i32, i32, i32, i32, i32, i32, i32, i32, i32, i32, [256 x i8], ptr }
%struct.anon.0 = type { ptr, ptr, i32, [256 x i8], ptr }

@.str.1 = private unnamed_addr constant [41 x i8] c"Video subsystem has not been initialized\00", align 1
@_this = internal global ptr null, align 8
@.str.20 = private unnamed_addr constant [15 x i8] c"Invalid window\00", align 1
@syncHint = internal global i8 0, align 1

; Function Attrs: nounwind uwtable
define hidden zeroext i1 @SDL_UninitializedVideo() #0 {
  %1 = call zeroext i1 (ptr, ...) @SDL_SetError_REAL(ptr noundef @.str.1)
  ret i1 %1
}

; Function Attrs: nounwind uwtable
define hidden zeroext i1 @SDL_SyncWindow_REAL(ptr noundef %0) #0 {
  %2 = alloca i1, align 1
  %3 = alloca ptr, align 8
  store ptr %0, ptr %3, align 8
  %4 = load ptr, ptr @_this, align 8
  %5 = icmp ne ptr %4, null
  br i1 %5, label %8, label %6

6:                                                ; preds = %1
  %7 = call zeroext i1 @SDL_UninitializedVideo()
  store i1 false, ptr %2, align 1
  br label %26

8:                                                ; preds = %1
  %9 = load ptr, ptr %3, align 8
  %10 = call zeroext i1 @SDL_ObjectValid(ptr noundef %9, i32 noundef 1)
  br i1 %10, label %13, label %11

11:                                               ; preds = %8
  %12 = call zeroext i1 (ptr, ...) @SDL_SetError_REAL(ptr noundef @.str.20)
  store i1 false, ptr %2, align 1
  br label %26

13:                                               ; preds = %8
  %14 = load ptr, ptr @_this, align 8
  %15 = getelementptr inbounds nuw %struct.SDL_VideoDevice, ptr %14, i32 0, i32 49
  %16 = load ptr, ptr %15, align 8
  %17 = icmp ne ptr %16, null
  br i1 %17, label %18, label %25

18:                                               ; preds = %13
  %19 = load ptr, ptr @_this, align 8
  %20 = getelementptr inbounds nuw %struct.SDL_VideoDevice, ptr %19, i32 0, i32 49
  %21 = load ptr, ptr %20, align 8
  %22 = load ptr, ptr @_this, align 8
  %23 = load ptr, ptr %3, align 8
  %24 = call zeroext i1 %21(ptr noundef %22, ptr noundef %23)
  store i1 %24, ptr %2, align 1
  br label %26

25:                                               ; preds = %13
  store i1 true, ptr %2, align 1
  br label %26

26:                                               ; preds = %25, %18, %11, %6
  %27 = load i1, ptr %2, align 1
  ret i1 %27
}

; Function Attrs: nounwind uwtable
define internal void @SDL_SyncIfRequired(ptr noundef %0) #0 {
  %2 = alloca ptr, align 8
  store ptr %0, ptr %2, align 8
  %3 = load i8, ptr @syncHint, align 1, !range !5, !noundef !6
  %4 = trunc i8 %3 to i1
  br i1 %4, label %5, label %8

5:                                                ; preds = %1
  %6 = load ptr, ptr %2, align 8
  %7 = call zeroext i1 @SDL_SyncWindow_REAL(ptr noundef %6)
  br label %8

8:                                                ; preds = %5, %1
  ret void
}