; Function Attrs: nounwind uwtable
define internal fastcc void @SDL_SyncIfRequired(ptr noundef %0) unnamed_addr #0 {
  %2 = load i8, ptr @syncHint, align 1, !range !6, !noundef !7
  %3 = trunc nuw i8 %2 to i1
  br i1 %3, label %4, label %SDL_SyncWindow_REAL.exit

4:                                                ; preds = %1
  %5 = load ptr, ptr @_this, align 8
  %.not.i = icmp eq ptr %5, null
  br i1 %.not.i, label %6, label %8

6:                                                ; preds = %4
  %7 = tail call zeroext i1 (ptr, ...) @SDL_SetError_REAL(ptr noundef nonnull @.str.1) #19
  br label %SDL_SyncWindow_REAL.exit

8:                                                ; preds = %4
  %9 = tail call zeroext i1 @SDL_ObjectValid(ptr noundef %0, i32 noundef 1) #19
  br i1 %9, label %12, label %10

10:                                               ; preds = %8
  %11 = tail call zeroext i1 (ptr, ...) @SDL_SetError_REAL(ptr noundef nonnull @.str.20) #19
  br label %SDL_SyncWindow_REAL.exit

12:                                               ; preds = %8
  %13 = load ptr, ptr @_this, align 8
  %14 = getelementptr inbounds nuw i8, ptr %13, i64 392
  %15 = load ptr, ptr %14, align 8
  %.not4.i = icmp eq ptr %15, null
  br i1 %.not4.i, label %SDL_SyncWindow_REAL.exit, label %16

16:                                               ; preds = %12
  %17 = tail call zeroext i1 %15(ptr noundef nonnull %13, ptr noundef %0) #19
  br label %SDL_SyncWindow_REAL.exit

SDL_SyncWindow_REAL.exit:                         ; preds = %16, %12, %10, %6, %1
  ret void
}